; Listing generated by Microsoft (R) Optimizing Compiler Version 19.22.27905.0 

	TITLE	c:\users\doria\onedrive\programmation\c++\visual studio\cheats\cheat opti\cheat opti\aimbot.cpp
	.686P
	.XMM
	include listing.inc
	.model	flat

INCLUDELIB OLDNAMES

EXTRN	__imp____std_terminate:PROC
EXTRN	__imp____CxxFrameHandler3:PROC
PUBLIC	??1Aimbot@@QAE@XZ				; Aimbot::~Aimbot
PUBLIC	??0Aimbot@@QAE@PAVMemory@@PAH@Z			; Aimbot::Aimbot
PUBLIC	__real@00000000
PUBLIC	__real@3b808081
PUBLIC	__real@3c23d70a
PUBLIC	__real@3f800000
PUBLIC	__real@3ffc28f6
PUBLIC	__real@41cdcd6500000000
PUBLIC	__real@42652ee1
PUBLIC	__real@42700000
PUBLIC	__real@42b20000
PUBLIC	__real@43088e6d68b00000
PUBLIC	__real@43340000
PUBLIC	__real@43b40000
PUBLIC	__real@4406e000
PUBLIC	__real@44070000
PUBLIC	__real@44700000
PUBLIC	__real@44702000
PUBLIC	__real@497423f0
PUBLIC	__real@c2b20000
PUBLIC	__real@c3340000
EXTRN	___CxxFrameHandler3:PROC
EXTRN	___libm_sse2_asinf:PROC
EXTRN	___libm_sse2_atanf:PROC
EXTRN	___std_terminate:PROC
EXTRN	__alldiv:PROC
EXTRN	__alldvrm:PROC
EXTRN	__allmul:PROC
EXTRN	__ltod3:PROC
EXTRN	_memmove:PROC
EXTRN	_memset:PROC
EXTRN	__fltused:DWORD
;	COMDAT __real@c3340000
CONST	SEGMENT
__real@c3340000 DD 0c3340000r			; -180
CONST	ENDS
;	COMDAT __real@c2b20000
CONST	SEGMENT
__real@c2b20000 DD 0c2b20000r			; -89
CONST	ENDS
;	COMDAT __real@497423f0
CONST	SEGMENT
__real@497423f0 DD 0497423f0r			; 999999
CONST	ENDS
;	COMDAT __real@44702000
CONST	SEGMENT
__real@44702000 DD 044702000r			; 960.5
CONST	ENDS
;	COMDAT __real@44700000
CONST	SEGMENT
__real@44700000 DD 044700000r			; 960
CONST	ENDS
;	COMDAT __real@44070000
CONST	SEGMENT
__real@44070000 DD 044070000r			; 540
CONST	ENDS
;	COMDAT __real@4406e000
CONST	SEGMENT
__real@4406e000 DD 04406e000r			; 539.5
CONST	ENDS
;	COMDAT __real@43b40000
CONST	SEGMENT
__real@43b40000 DD 043b40000r			; 360
CONST	ENDS
;	COMDAT __real@43340000
CONST	SEGMENT
__real@43340000 DD 043340000r			; 180
CONST	ENDS
;	COMDAT __real@43088e6d68b00000
CONST	SEGMENT
__real@43088e6d68b00000 DQ 043088e6d68b00000r	; 8.64e+14
CONST	ENDS
;	COMDAT __real@42b20000
CONST	SEGMENT
__real@42b20000 DD 042b20000r			; 89
CONST	ENDS
;	COMDAT __real@42700000
CONST	SEGMENT
__real@42700000 DD 042700000r			; 60
CONST	ENDS
;	COMDAT __real@42652ee1
CONST	SEGMENT
__real@42652ee1 DD 042652ee1r			; 57.2958
CONST	ENDS
;	COMDAT __real@41cdcd6500000000
CONST	SEGMENT
__real@41cdcd6500000000 DQ 041cdcd6500000000r	; 1e+09
CONST	ENDS
;	COMDAT __real@3ffc28f6
CONST	SEGMENT
__real@3ffc28f6 DD 03ffc28f6r			; 1.97
CONST	ENDS
;	COMDAT __real@3f800000
CONST	SEGMENT
__real@3f800000 DD 03f800000r			; 1
CONST	ENDS
;	COMDAT __real@3c23d70a
CONST	SEGMENT
__real@3c23d70a DD 03c23d70ar			; 0.01
CONST	ENDS
;	COMDAT __real@3b808081
CONST	SEGMENT
__real@3b808081 DD 03b808081r			; 0.00392157
CONST	ENDS
;	COMDAT __real@00000000
CONST	SEGMENT
__real@00000000 DD 000000000r			; 0
?screen@@3VVector2D@@B DQ 04407000044700000r	; 5.30344e+19 ; screen
END
